target datalayout = "e-m:e-p270:32:32-p271:32:32-p272:64:64-i64:64-i128:128-f80:128-n8:16:32:64-S128"
target triple = "x86_64-pc-linux-gnu"

%struct._object = type { %union.anon, ptr }
%union.anon = type { i64 }
%struct.PyVarObject = type { %struct._object, i64 }
%struct.PyTupleObject = type { %struct.PyVarObject, [1 x ptr] }
%struct._typeobject = type { %struct.PyVarObject, ptr, i64, i64, ptr, i64, ptr, ptr, ptr, ptr, ptr, ptr, ptr, ptr, ptr, ptr, ptr, ptr, ptr, i64, ptr, ptr, ptr, ptr, i64, ptr, ptr, ptr, ptr, ptr, ptr, ptr, ptr, ptr, i64, ptr, ptr, ptr, ptr, ptr, ptr, ptr, ptr, ptr, ptr, ptr, i32, ptr, ptr, i8, i16 }
%struct.anon.5 = type { i32, i32 }

@.str.120 = private unnamed_addr constant [4 x i8] c"(O)\00", align 1
@PyFrozenSet_Type = external global %struct._typeobject, align 8

; Function Attrs: alwaysinline nounwind uwtable
define internal i32 @_Py_IsImmortal(ptr noundef %0) #5 {
  %2 = alloca ptr, align 8
  store ptr %0, ptr %2, align 8, !tbaa !9
  %3 = load ptr, ptr %2, align 8, !tbaa !9
  %4 = getelementptr inbounds nuw %struct._object, ptr %3, i32 0, i32 0
  %5 = getelementptr inbounds nuw %struct.anon.5, ptr %4, i32 0, i32 0
  %6 = load i32, ptr %5, align 8, !tbaa !102
  %7 = icmp slt i32 %6, 0
  %8 = zext i1 %7 to i32
  ret i32 %8
}

; Function Attrs: inlinehint nounwind uwtable
define internal void @PyTuple_SET_ITEM(ptr noundef %0, i64 noundef %1, ptr noundef %2) #3 {
  %4 = alloca ptr, align 8
  %5 = alloca i64, align 8
  %6 = alloca ptr, align 8
  %7 = alloca ptr, align 8
  store ptr %0, ptr %4, align 8, !tbaa !9
  store i64 %1, ptr %5, align 8, !tbaa !204
  store ptr %2, ptr %6, align 8, !tbaa !9
  call void @llvm.lifetime.start.p0(i64 8, ptr %7) #12
  %8 = load ptr, ptr %4, align 8, !tbaa !9
  store ptr %8, ptr %7, align 8, !tbaa !212
  %9 = load ptr, ptr %6, align 8, !tbaa !9
  %10 = load ptr, ptr %7, align 8, !tbaa !212
  %11 = getelementptr inbounds nuw %struct.PyTupleObject, ptr %10, i32 0, i32 1
  %12 = load i64, ptr %5, align 8, !tbaa !204
  %13 = getelementptr [1 x ptr], ptr %11, i64 0, i64 %12
  store ptr %9, ptr %13, align 8, !tbaa !9
  call void @llvm.lifetime.end.p0(i64 8, ptr %7) #12
  ret void
}

; Function Attrs: alwaysinline nounwind uwtable
define internal void @Py_DECREF(ptr noundef %0) #5 {
  %2 = alloca ptr, align 8
  store ptr %0, ptr %2, align 8, !tbaa !9
  %3 = load ptr, ptr %2, align 8, !tbaa !9
  %4 = call i32 @_Py_IsImmortal(ptr noundef %3)
  %5 = icmp ne i32 %4, 0
  br i1 %5, label %6, label %7

6:                                                ; preds = %1
  br label %16

7:                                                ; preds = %1
  %8 = load ptr, ptr %2, align 8, !tbaa !9
  %9 = getelementptr inbounds nuw %struct._object, ptr %8, i32 0, i32 0
  %10 = getelementptr inbounds nuw %struct.anon.5, ptr %9, i32 0, i32 0
  %11 = load i32, ptr %10, align 8, !tbaa !102
  %12 = add i32 %11, -1
  store i32 %12, ptr %10, align 8, !tbaa !102
  %13 = icmp eq i32 %12, 0
  br i1 %13, label %14, label %16

14:                                               ; preds = %7
  %15 = load ptr, ptr %2, align 8, !tbaa !9
  call void @_Py_Dealloc(ptr noundef %15)
  br label %16

16:                                               ; preds = %6, %14, %7
  ret void
}

; Function Attrs: nounwind uwtable
define internal ptr @list_stdlib_module_names() #0 {
  %1 = alloca ptr, align 8
  %2 = alloca i64, align 8
  %3 = alloca ptr, align 8
  %4 = alloca i32, align 4
  %5 = alloca i64, align 8
  %6 = alloca ptr, align 8
  %7 = alloca ptr, align 8
  call void @llvm.lifetime.start.p0(i64 8, ptr %2) #12
  store i64 291, ptr %2, align 8, !tbaa !204
  call void @llvm.lifetime.start.p0(i64 8, ptr %3) #12
  %8 = load i64, ptr %2, align 8, !tbaa !204
  %9 = call ptr @PyTuple_New(i64 noundef %8)
  store ptr %9, ptr %3, align 8, !tbaa !9
  %10 = load ptr, ptr %3, align 8, !tbaa !9
  %11 = icmp eq ptr %10, null
  br i1 %11, label %12, label %13

12:                                               ; preds = %0
  store ptr null, ptr %1, align 8
  store i32 1, ptr %4, align 4
  br label %45

13:                                               ; preds = %0
  call void @llvm.lifetime.start.p0(i64 8, ptr %5) #12
  store i64 0, ptr %5, align 8, !tbaa !204
  br label %14

14:                                               ; preds = %35, %13
  %15 = load i64, ptr %5, align 8, !tbaa !204
  %16 = load i64, ptr %2, align 8, !tbaa !204
  %17 = icmp slt i64 %15, %16
  br i1 %17, label %19, label %18

18:                                               ; preds = %14
  store i32 2, ptr %4, align 4
  br label %38

19:                                               ; preds = %14
  call void @llvm.lifetime.start.p0(i64 8, ptr %6) #12
  %20 = load i64, ptr %5, align 8, !tbaa !204
  %21 = getelementptr [291 x ptr], ptr @_Py_stdlib_module_names, i64 0, i64 %20
  %22 = load ptr, ptr %21, align 8, !tbaa !94
  %23 = call ptr @PyUnicode_FromString(ptr noundef %22)
  store ptr %23, ptr %6, align 8, !tbaa !9
  %24 = load ptr, ptr %6, align 8, !tbaa !9
  %25 = icmp eq ptr %24, null
  br i1 %25, label %26, label %28

26:                                               ; preds = %19
  %27 = load ptr, ptr %3, align 8, !tbaa !9
  call void @Py_DECREF(ptr noundef %27)
  store ptr null, ptr %1, align 8
  store i32 1, ptr %4, align 4
  br label %32

28:                                               ; preds = %19
  %29 = load ptr, ptr %3, align 8, !tbaa !9
  %30 = load i64, ptr %5, align 8, !tbaa !204
  %31 = load ptr, ptr %6, align 8, !tbaa !9
  call void @PyTuple_SET_ITEM(ptr noundef %29, i64 noundef %30, ptr noundef %31)
  store i32 0, ptr %4, align 4
  br label %32

32:                                               ; preds = %28, %26
  call void @llvm.lifetime.end.p0(i64 8, ptr %6) #12
  %33 = load i32, ptr %4, align 4
  switch i32 %33, label %38 [
    i32 0, label %34
  ]

34:                                               ; preds = %32
  br label %35

35:                                               ; preds = %34
  %36 = load i64, ptr %5, align 8, !tbaa !204
  %37 = add i64 %36, 1
  store i64 %37, ptr %5, align 8, !tbaa !204
  br label %14, !llvm.loop !318

38:                                               ; preds = %32, %18
  call void @llvm.lifetime.end.p0(i64 8, ptr %5) #12
  %39 = load i32, ptr %4, align 4
  switch i32 %39, label %45 [
    i32 2, label %40
  ]

40:                                               ; preds = %38
  call void @llvm.lifetime.start.p0(i64 8, ptr %7) #12
  %41 = load ptr, ptr %3, align 8, !tbaa !9
  %42 = call ptr (ptr, ptr, ...) @PyObject_CallFunction(ptr noundef @PyFrozenSet_Type, ptr noundef @.str.120, ptr noundef %41)
  store ptr %42, ptr %7, align 8, !tbaa !9
  %43 = load ptr, ptr %3, align 8, !tbaa !9
  call void @Py_DECREF(ptr noundef %43)
  %44 = load ptr, ptr %7, align 8, !tbaa !9
  store ptr %44, ptr %1, align 8
  store i32 1, ptr %4, align 4
  call void @llvm.lifetime.end.p0(i64 8, ptr %7) #12
  br label %45

45:                                               ; preds = %40, %38, %12
  call void @llvm.lifetime.end.p0(i64 8, ptr %3) #12
  call void @llvm.lifetime.end.p0(i64 8, ptr %2) #12
  %46 = load ptr, ptr %1, align 8
  ret ptr %46
}