; Function Attrs: nounwind uwtable
define internal fastcc ptr @list_stdlib_module_names() unnamed_addr #0 {
  %1 = tail call ptr @PyTuple_New(i64 noundef 291) #15
  %2 = icmp eq ptr %1, null
  br i1 %2, label %Py_DECREF.exit, label %.preheader

.preheader:                                       ; preds = %0
  %3 = getelementptr inbounds nuw i8, ptr %1, i64 24
  br label %4

4:                                                ; preds = %.preheader, %13
  %.01925 = phi i64 [ 0, %.preheader ], [ %15, %13 ]
  %5 = getelementptr [291 x ptr], ptr @_Py_stdlib_module_names, i64 0, i64 %.01925
  %6 = load ptr, ptr %5, align 8, !tbaa !213
  %7 = tail call ptr @PyUnicode_FromString(ptr noundef %6) #15
  %.not = icmp eq ptr %7, null
  br i1 %.not, label %8, label %13

8:                                                ; preds = %4
  %9 = load i32, ptr %1, align 8, !tbaa !94
  %.not.i22 = icmp sgt i32 %9, -1
  br i1 %.not.i22, label %10, label %Py_DECREF.exit

10:                                               ; preds = %8
  %11 = add nsw i32 %9, -1
  store i32 %11, ptr %1, align 8, !tbaa !94
  %12 = icmp eq i32 %11, 0
  br i1 %12, label %Py_DECREF.exit.sink.split, label %Py_DECREF.exit

13:                                               ; preds = %4
  %14 = getelementptr [1 x ptr], ptr %3, i64 0, i64 %.01925
  store ptr %7, ptr %14, align 8, !tbaa !93
  %15 = add nuw nsw i64 %.01925, 1
  %exitcond = icmp eq i64 %15, 291
  br i1 %exitcond, label %.critedge, label %4, !llvm.loop !300

.critedge:                                        ; preds = %13
  %16 = tail call ptr (ptr, ptr, ...) @PyObject_CallFunction(ptr noundef nonnull @PyFrozenSet_Type, ptr noundef nonnull @.str.120, ptr noundef nonnull %1) #15
  %17 = load i32, ptr %1, align 8, !tbaa !94
  %.not.i = icmp sgt i32 %17, -1
  br i1 %.not.i, label %18, label %Py_DECREF.exit

18:                                               ; preds = %.critedge
  %19 = add nsw i32 %17, -1
  store i32 %19, ptr %1, align 8, !tbaa !94
  %20 = icmp eq i32 %19, 0
  br i1 %20, label %Py_DECREF.exit.sink.split, label %Py_DECREF.exit

Py_DECREF.exit.sink.split:                        ; preds = %18, %10
  %.0.ph = phi ptr [ null, %10 ], [ %16, %18 ]
  tail call void @_Py_Dealloc(ptr noundef nonnull %1) #15
  br label %Py_DECREF.exit

Py_DECREF.exit:                                   ; preds = %Py_DECREF.exit.sink.split, %18, %.critedge, %8, %10, %0
  %.0 = phi ptr [ null, %0 ], [ null, %10 ], [ null, %8 ], [ %16, %.critedge ], [ %16, %18 ], [ %.0.ph, %Py_DECREF.exit.sink.split ]
  ret ptr %.0
}